; Function Attrs: mustprogress nounwind uwtable
define dso_local void @_ZN5clang5arcmt16TransformActions16abortTransactionEv(ptr noundef nonnull readonly align 8 captures(none) dereferenceable(24) %0) local_unnamed_addr #3 align 2 {
  %2 = getelementptr inbounds nuw i8, ptr %0, i64 16
  %3 = load ptr, ptr %2, align 8
  %4 = getelementptr inbounds nuw i8, ptr %3, i64 32
  %5 = load ptr, ptr %4, align 8
  %6 = getelementptr inbounds nuw i8, ptr %3, i64 40
  %7 = load ptr, ptr %6, align 8
  %.not.i.i.i = icmp eq ptr %7, %5
  br i1 %.not.i.i.i, label %_ZN12_GLOBAL__N_120TransformActionsImpl16abortTransactionEv.exit, label %.lr.ph.i.i.i.i.i.i

.lr.ph.i.i.i.i.i.i:                               ; preds = %1, %_ZSt8_DestroyIN12_GLOBAL__N_120TransformActionsImpl10ActionDataEEvPT_.exit.i.i.i.i.i.i
  %.05.i.i.i.i.i.i = phi ptr [ %14, %_ZSt8_DestroyIN12_GLOBAL__N_120TransformActionsImpl10ActionDataEEvPT_.exit.i.i.i.i.i.i ], [ %5, %1 ]
  %8 = getelementptr inbounds nuw i8, ptr %.05.i.i.i.i.i.i, i64 64
  %9 = tail call noundef i64 @_ZNK4llvm15SmallVectorBaseIjE4sizeEv(ptr noundef nonnull align 8 dereferenceable(24) %8) #21
  %10 = load ptr, ptr %8, align 8
  %11 = getelementptr inbounds nuw i8, ptr %.05.i.i.i.i.i.i, i64 80
  %12 = icmp eq ptr %10, %11
  br i1 %12, label %_ZSt8_DestroyIN12_GLOBAL__N_120TransformActionsImpl10ActionDataEEvPT_.exit.i.i.i.i.i.i, label %13

13:                                               ; preds = %.lr.ph.i.i.i.i.i.i
  tail call void @free(ptr noundef %10) #21
  br label %_ZSt8_DestroyIN12_GLOBAL__N_120TransformActionsImpl10ActionDataEEvPT_.exit.i.i.i.i.i.i

_ZSt8_DestroyIN12_GLOBAL__N_120TransformActionsImpl10ActionDataEEvPT_.exit.i.i.i.i.i.i: ; preds = %13, %.lr.ph.i.i.i.i.i.i
  %14 = getelementptr inbounds nuw i8, ptr %.05.i.i.i.i.i.i, i64 88
  %.not.i.i.i.i.i.i = icmp eq ptr %14, %7
  br i1 %.not.i.i.i.i.i.i, label %_ZSt8_DestroyIPN12_GLOBAL__N_120TransformActionsImpl10ActionDataES2_EvT_S4_RSaIT0_E.exit.i.i.i, label %.lr.ph.i.i.i.i.i.i, !llvm.loop !7

_ZSt8_DestroyIPN12_GLOBAL__N_120TransformActionsImpl10ActionDataES2_EvT_S4_RSaIT0_E.exit.i.i.i: ; preds = %_ZSt8_DestroyIN12_GLOBAL__N_120TransformActionsImpl10ActionDataEEvPT_.exit.i.i.i.i.i.i
  store ptr %5, ptr %6, align 8
  br label %_ZN12_GLOBAL__N_120TransformActionsImpl16abortTransactionEv.exit

_ZN12_GLOBAL__N_120TransformActionsImpl16abortTransactionEv.exit: ; preds = %1, %_ZSt8_DestroyIPN12_GLOBAL__N_120TransformActionsImpl10ActionDataES2_EvT_S4_RSaIT0_E.exit.i.i.i
  %15 = getelementptr inbounds nuw i8, ptr %3, i64 24
  store i8 0, ptr %15, align 8
  ret void
}